(dp0
S'B'
p1
(lp2
S'C'
p3
aS'G'
p4
aS'T'
p5
asS'D'
p6
(lp7
S'A'
p8
ag4
ag5
asS'H'
p9
(lp10
g8
ag3
ag5
asS'K'
p11
(lp12
g4
ag5
asS'M'
p13
(lp14
g8
ag3
asS'N'
p15
(lp16
g8
ag3
ag4
ag5
asS'S'
p17
(lp18
g4
ag3
asS'R'
p19
(lp20
g8
ag4
asS'U'
p21
(lp22
g5
asS'W'
p23
(lp24
g8
ag5
asS'V'
p25
(lp26
g8
ag3
ag4
asS'Y'
p27
(lp28
g3
ag5
as.